; Function Attrs: mustprogress nounwind uwtable
define internal fastcc void @_ZNK4llvm11ImutAVLTreeINS_16ImutKeyValueInfoIPKN5clang4ento9MemRegionEN12_GLOBAL__N_111ObjectStateEEEE5beginEv(ptr dead_on_unwind noalias nonnull writable align 8 %0, ptr noundef nonnull align 8 dereferenceable(72) %1) unnamed_addr #0 align 2 {
  %3 = getelementptr inbounds nuw i8, ptr %0, i64 16
  tail call void @_ZN4llvm15SmallVectorBaseIjEC2EPvm(ptr noundef nonnull align 8 dereferenceable(176) %0, ptr noundef nonnull %3, i64 noundef 20) #21
  %4 = tail call noundef i64 @_ZNK4llvm15SmallVectorBaseIjE4sizeEv(ptr noundef nonnull align 8 dereferenceable(176) %0) #21
  %5 = add i64 %4, 1
  %6 = tail call noundef i64 @_ZNK4llvm15SmallVectorBaseIjE8capacityEv(ptr noundef nonnull align 8 dereferenceable(176) %0) #21
  %.not.i.i.i.i.i = icmp ugt i64 %5, %6
  br i1 %.not.i.i.i.i.i, label %7, label %_ZN4llvm26ImutAVLTreeInOrderIteratorINS_16ImutKeyValueInfoIPKN5clang4ento9MemRegionEN12_GLOBAL__N_111ObjectStateEEEEC2EPKNS_11ImutAVLTreeIS9_EE.exit

7:                                                ; preds = %2
  tail call void @_ZN4llvm15SmallVectorBaseIjE8grow_podEPvmm(ptr noundef nonnull align 8 dereferenceable(176) %0, ptr noundef nonnull %3, i64 noundef %5, i64 noundef 8) #21
  br label %_ZN4llvm26ImutAVLTreeInOrderIteratorINS_16ImutKeyValueInfoIPKN5clang4ento9MemRegionEN12_GLOBAL__N_111ObjectStateEEEEC2EPKNS_11ImutAVLTreeIS9_EE.exit

_ZN4llvm26ImutAVLTreeInOrderIteratorINS_16ImutKeyValueInfoIPKN5clang4ento9MemRegionEN12_GLOBAL__N_111ObjectStateEEEEC2EPKNS_11ImutAVLTreeIS9_EE.exit: ; preds = %2, %7
  %8 = ptrtoint ptr %1 to i64
  %9 = load ptr, ptr %0, align 8
  %10 = tail call noundef i64 @_ZNK4llvm15SmallVectorBaseIjE4sizeEv(ptr noundef nonnull align 8 dereferenceable(176) %0) #21
  %11 = getelementptr inbounds i64, ptr %9, i64 %10
  store i64 %8, ptr %11, align 1
  %12 = tail call noundef i64 @_ZNK4llvm15SmallVectorBaseIjE4sizeEv(ptr noundef nonnull align 8 dereferenceable(176) %0) #21
  %13 = add i64 %12, 1
  tail call void @_ZN4llvm15SmallVectorBaseIjE8set_sizeEm(ptr noundef nonnull align 8 dereferenceable(176) %0, i64 noundef %13) #21
  %14 = tail call fastcc noundef nonnull align 8 dereferenceable(176) ptr @_ZN4llvm26ImutAVLTreeInOrderIteratorINS_16ImutKeyValueInfoIPKN5clang4ento9MemRegionEN12_GLOBAL__N_111ObjectStateEEEEppEv(ptr noundef nonnull align 8 dereferenceable(176) %0)
  ret void
}